; Function Attrs: mustprogress nofree norecurse nounwind willreturn memory(readwrite, inaccessiblemem: none) uwtable
define void @_ZNK12FunnelAction5titleEv(ptr dead_on_unwind noalias nocapture writable writeonly sret(%class.QString) align 8 %0, ptr nocapture noundef nonnull readonly align 8 dereferenceable(112) %1) local_unnamed_addr #6 align 2 personality ptr @__gxx_personality_v0 {
  %3 = getelementptr inbounds i8, ptr %1, i64 16
  %4 = load ptr, ptr %3, align 8
  store ptr %4, ptr %0, align 8
  %5 = getelementptr inbounds i8, ptr %0, i64 8
  %6 = getelementptr inbounds i8, ptr %1, i64 24
  %7 = load ptr, ptr %6, align 8
  store ptr %7, ptr %5, align 8
  %8 = getelementptr inbounds i8, ptr %0, i64 16
  %9 = getelementptr inbounds i8, ptr %1, i64 32
  %10 = load i64, ptr %9, align 8
  store i64 %10, ptr %8, align 8
  %.not.i.i.i = icmp eq ptr %4, null
  br i1 %.not.i.i.i, label %_ZN7QStringC2ERKS_.exit, label %11

11:                                               ; preds = %2
  %12 = atomicrmw add ptr %4, i32 1 seq_cst, align 4
  br label %_ZN7QStringC2ERKS_.exit

_ZN7QStringC2ERKS_.exit:                          ; preds = %2, %11
  ret void
}